; Function Attrs: nounwind uwtable
define internal noalias noundef ptr @sqlite_handle_quoter(ptr nocapture readnone %0, ptr noundef %1, i32 %2) #0 {
  %4 = getelementptr inbounds i8, ptr %1, i64 16
  %5 = load i64, ptr %4, align 8
  %6 = icmp ugt i64 %5, 1073741822
  br i1 %6, label %23, label %7

7:                                                ; preds = %3
  %8 = tail call noalias ptr @_safe_emalloc(i64 noundef 2, i64 noundef %5, i64 noundef 3) #11
  %9 = load i64, ptr %4, align 8
  %.tr = trunc i64 %9 to i32
  %10 = shl i32 %.tr, 1
  %11 = add i32 %10, 3
  %12 = getelementptr inbounds i8, ptr %1, i64 24
  %13 = tail call ptr (i32, ptr, ptr, ...) @sqlite3_snprintf(i32 noundef %11, ptr noundef %8, ptr noundef nonnull @.str.15, ptr noundef nonnull %12) #11
  %14 = tail call i64 @strlen(ptr noundef nonnull dereferenceable(1) %8) #14
  %15 = and i64 %14, -8
  %16 = add i64 %15, 32
  %17 = tail call noalias ptr @_emalloc(i64 noundef %16) #13
  store i32 1, ptr %17, align 4
  %18 = getelementptr inbounds i8, ptr %17, i64 4
  store i32 22, ptr %18, align 4
  %19 = getelementptr inbounds i8, ptr %17, i64 8
  store i64 0, ptr %19, align 8
  %20 = getelementptr inbounds i8, ptr %17, i64 16
  store i64 %14, ptr %20, align 8
  %21 = getelementptr inbounds i8, ptr %17, i64 24
  tail call void @llvm.memcpy.p0.p0.i64(ptr nonnull align 8 %21, ptr align 1 %8, i64 %14, i1 false)
  %22 = getelementptr inbounds [1 x i8], ptr %21, i64 0, i64 %14
  store i8 0, ptr %22, align 1
  tail call void @_efree(ptr noundef %8) #11
  br label %23

23:                                               ; preds = %3, %7
  %.0 = phi ptr [ %17, %7 ], [ null, %3 ]
  ret ptr %.0
}